target datalayout = "e-m:e-p270:32:32-p271:32:32-p272:64:64-i64:64-i128:128-f80:128-n8:16:32:64-S128"
target triple = "x86_64-pc-linux-gnu"

; Function Attrs: mustprogress nounwind uwtable
define noundef i32 @_ZN13MarchingCubes18AddTriangleIndicesEiPi(i32 noundef %0, ptr noundef %1) #1 align 2 {
  %3 = alloca i32, align 4
  %4 = alloca i32, align 4
  %5 = alloca ptr, align 8
  %6 = alloca i32, align 4
  %7 = alloca i32, align 4
  %8 = alloca i32, align 4
  store i32 %0, ptr %4, align 4
  store ptr %1, ptr %5, align 8
  store i32 0, ptr %6, align 4
  %9 = load i32, ptr %4, align 4
  %10 = sext i32 %9 to i64
  %11 = getelementptr inbounds [256 x i32], ptr @_ZN13MarchingCubes8edgeMaskE, i64 0, i64 %10
  %12 = load i32, ptr %11, align 4
  %13 = icmp ne i32 %12, 0
  br i1 %13, label %15, label %14

14:                                               ; preds = %2
  store i32 0, ptr %3, align 4
  br label %56

15:                                               ; preds = %2
  store i32 0, ptr %7, align 4
  br label %16

16:                                               ; preds = %51, %15
  %17 = load i32, ptr %4, align 4
  %18 = sext i32 %17 to i64
  %19 = getelementptr inbounds [256 x [16 x i32]], ptr @_ZN13MarchingCubes9trianglesE, i64 0, i64 %18
  %20 = load i32, ptr %7, align 4
  %21 = sext i32 %20 to i64
  %22 = getelementptr inbounds [16 x i32], ptr %19, i64 0, i64 %21
  %23 = load i32, ptr %22, align 4
  %24 = icmp ne i32 %23, -1
  br i1 %24, label %25, label %54

25:                                               ; preds = %16
  store i32 0, ptr %8, align 4
  br label %26

26:                                               ; preds = %45, %25
  %27 = load i32, ptr %8, align 4
  %28 = icmp slt i32 %27, 3
  br i1 %28, label %29, label %48

29:                                               ; preds = %26
  %30 = load i32, ptr %4, align 4
  %31 = sext i32 %30 to i64
  %32 = getelementptr inbounds [256 x [16 x i32]], ptr @_ZN13MarchingCubes9trianglesE, i64 0, i64 %31
  %33 = load i32, ptr %7, align 4
  %34 = load i32, ptr %8, align 4
  %35 = add nsw i32 %33, %34
  %36 = sext i32 %35 to i64
  %37 = getelementptr inbounds [16 x i32], ptr %32, i64 0, i64 %36
  %38 = load i32, ptr %37, align 4
  %39 = load ptr, ptr %5, align 8
  %40 = load i32, ptr %7, align 4
  %41 = load i32, ptr %8, align 4
  %42 = add nsw i32 %40, %41
  %43 = sext i32 %42 to i64
  %44 = getelementptr inbounds i32, ptr %39, i64 %43
  store i32 %38, ptr %44, align 4
  br label %45

45:                                               ; preds = %29
  %46 = load i32, ptr %8, align 4
  %47 = add nsw i32 %46, 1
  store i32 %47, ptr %8, align 4
  br label %26, !llvm.loop !55

48:                                               ; preds = %26
  %49 = load i32, ptr %6, align 4
  %50 = add nsw i32 %49, 1
  store i32 %50, ptr %6, align 4
  br label %51

51:                                               ; preds = %48
  %52 = load i32, ptr %7, align 4
  %53 = add nsw i32 %52, 3
  store i32 %53, ptr %7, align 4
  br label %16, !llvm.loop !56

54:                                               ; preds = %16
  %55 = load i32, ptr %6, align 4
  store i32 %55, ptr %3, align 4
  br label %56

56:                                               ; preds = %54, %14
  %57 = load i32, ptr %3, align 4
  ret i32 %57
}