; Function Attrs: mustprogress nofree norecurse nosync nounwind memory(argmem: write) uwtable
define noundef i32 @_ZN13MarchingCubes18AddTriangleIndicesEiPi(i32 noundef %0, ptr noundef writeonly captures(none) %1) local_unnamed_addr #6 align 2 {
  %3 = sext i32 %0 to i64
  switch i32 %0, label %.preheader [
    i32 255, label %.loopexit
    i32 0, label %.loopexit
  ]

.preheader:                                       ; preds = %2, %9
  %indvars.iv25 = phi i64 [ %indvars.iv.next26, %9 ], [ 0, %2 ]
  %.01521 = phi i32 [ %10, %9 ], [ 0, %2 ]
  br label %4

4:                                                ; preds = %.preheader, %4
  %indvars.iv = phi i64 [ 0, %.preheader ], [ %indvars.iv.next, %4 ]
  %5 = add nuw nsw i64 %indvars.iv, %indvars.iv25
  %6 = getelementptr inbounds [256 x [16 x i32]], ptr @_ZN13MarchingCubes9trianglesE, i64 0, i64 %3, i64 %5
  %7 = load i32, ptr %6, align 4
  %8 = getelementptr inbounds nuw i32, ptr %1, i64 %5
  store i32 %7, ptr %8, align 4
  %indvars.iv.next = add nuw nsw i64 %indvars.iv, 1
  %exitcond.not = icmp eq i64 %indvars.iv.next, 3
  br i1 %exitcond.not, label %9, label %4, !llvm.loop !21

9:                                                ; preds = %4
  %10 = add nuw nsw i32 %.01521, 1
  %indvars.iv.next26 = add nuw nsw i64 %indvars.iv25, 3
  %11 = getelementptr inbounds [256 x [16 x i32]], ptr @_ZN13MarchingCubes9trianglesE, i64 0, i64 %3, i64 %indvars.iv.next26
  %12 = load i32, ptr %11, align 4
  %.not17 = icmp eq i32 %12, -1
  br i1 %.not17, label %.loopexit, label %.preheader, !llvm.loop !22

.loopexit:                                        ; preds = %9, %2, %2
  %.016 = phi i32 [ 0, %2 ], [ 0, %2 ], [ %10, %9 ]
  ret i32 %.016
}